target datalayout = "e-m:e-p270:32:32-p271:32:32-p272:64:64-i64:64-i128:128-f80:128-n8:16:32:64-S128"
target triple = "x86_64-pc-linux-gnu"

%struct.IDAMemRec = type { double, ptr, ptr, i32, double, double, ptr, i32, ptr, ptr, i32, ptr, ptr, i32, i32, double, double, ptr, i32, i32, i32, ptr, ptr, i32, ptr, ptr, ptr, i32, double, i32, i32, double, ptr, ptr, i32, ptr, ptr, i32, i32, i32, double, ptr, ptr, [6 x ptr], [6 x double], [6 x double], [6 x double], [6 x double], [6 x double], ptr, ptr, ptr, ptr, ptr, ptr, ptr, ptr, ptr, ptr, ptr, ptr, ptr, ptr, ptr, [6 x ptr], ptr, ptr, ptr, ptr, [6 x ptr], ptr, ptr, ptr, ptr, ptr, ptr, ptr, ptr, ptr, ptr, ptr, ptr, ptr, ptr, [6 x ptr], ptr, ptr, ptr, ptr, ptr, double, ptr, ptr, i32, i32, i32, i32, i32, i32, i32, double, double, double, i32, double, i32, i32, i32, i32, double, double, double, double, double, double, double, double, double, double, double, double, double, double, i32, i32, i32, i32, i32, i64, double, i32, i64, i64, i64, i64, i64, i64, i64, i64, i64, i64, i64, i64, i64, i64, i64, i64, i64, i64, i64, i64, i64, i64, i64, i64, ptr, ptr, ptr, i32, i32, i32, i32, i32, i32, i32, i32, i32, i32, i32, i32, i32, ptr, ptr, ptr, ptr, ptr, ptr, i32, i32, i32, i32, i32, i32, double, double, double, ptr, i32, ptr, ptr, double, double, double, ptr, ptr, ptr, double, double, i32, i32, i64, ptr, i32, i32, ptr, i32 }
%struct._generic_N_Vector = type { ptr, ptr }
%struct._generic_N_Vector_Ops = type { ptr, ptr, ptr, ptr, ptr, ptr, ptr, ptr, ptr, ptr, ptr, ptr, ptr, ptr, ptr, ptr, ptr, ptr, ptr, ptr, ptr, ptr, ptr, ptr, ptr }
%struct.IDASpilsMemRec = type { i32, i32, double, i32, i32, double, double, double, i64, i64, i64, i64, i64, i64, i64, i64, i64, i64, i64, i64, ptr, ptr, ptr, ptr, ptr, ptr, ptr, i64, ptr, ptr, ptr, ptr, i32, ptr, ptr }

@.str = private unnamed_addr constant [9 x i8] c"IDASPGMR\00", align 1
@.str.1 = private unnamed_addr constant [9 x i8] c"IDASpgmr\00", align 1
@.str.2 = private unnamed_addr constant [27 x i8] c"Integrator memory is NULL.\00", align 1
@.str.3 = private unnamed_addr constant [48 x i8] c"A required vector operation is not implemented.\00", align 1
@.str.4 = private unnamed_addr constant [25 x i8] c"A memory request failed.\00", align 1

; Function Attrs: nounwind uwtable
define i32 @IDASpgmr(ptr noundef %0, i32 noundef %1) #0 {
  %3 = alloca i32, align 4
  %4 = alloca ptr, align 8
  %5 = alloca i32, align 4
  %6 = alloca ptr, align 8
  %7 = alloca ptr, align 8
  %8 = alloca ptr, align 8
  %9 = alloca i32, align 4
  %10 = alloca i32, align 4
  %11 = alloca i32, align 4
  store ptr %0, ptr %4, align 8, !tbaa !3
  store i32 %1, ptr %5, align 4, !tbaa !7
  call void @llvm.lifetime.start.p0(i64 8, ptr %6) #5
  call void @llvm.lifetime.start.p0(i64 8, ptr %7) #5
  call void @llvm.lifetime.start.p0(i64 8, ptr %8) #5
  call void @llvm.lifetime.start.p0(i64 4, ptr %9) #5
  call void @llvm.lifetime.start.p0(i64 4, ptr %10) #5
  %12 = load ptr, ptr %4, align 8, !tbaa !3
  %13 = icmp eq ptr %12, null
  br i1 %13, label %14, label %15

14:                                               ; preds = %2
  call void (ptr, i32, ptr, ptr, ptr, ...) @IDAProcessError(ptr noundef null, i32 noundef -1, ptr noundef @.str, ptr noundef @.str.1, ptr noundef @.str.2)
  store i32 -1, ptr %3, align 4
  store i32 1, ptr %11, align 4
  br label %180

15:                                               ; preds = %2
  %16 = load ptr, ptr %4, align 8, !tbaa !3
  store ptr %16, ptr %6, align 8, !tbaa !9
  %17 = load ptr, ptr %6, align 8, !tbaa !9
  %18 = getelementptr inbounds nuw %struct.IDAMemRec, ptr %17, i32 0, i32 58
  %19 = load ptr, ptr %18, align 8, !tbaa !11
  %20 = getelementptr inbounds nuw %struct._generic_N_Vector, ptr %19, i32 0, i32 1
  %21 = load ptr, ptr %20, align 8, !tbaa !21
  %22 = getelementptr inbounds nuw %struct._generic_N_Vector_Ops, ptr %21, i32 0, i32 14
  %23 = load ptr, ptr %22, align 8, !tbaa !24
  %24 = icmp eq ptr %23, null
  br i1 %24, label %25, label %26

25:                                               ; preds = %15
  call void (ptr, i32, ptr, ptr, ptr, ...) @IDAProcessError(ptr noundef null, i32 noundef -3, ptr noundef @.str, ptr noundef @.str.1, ptr noundef @.str.3)
  store i32 -3, ptr %3, align 4
  store i32 1, ptr %11, align 4
  br label %180

26:                                               ; preds = %15
  %27 = load ptr, ptr %6, align 8, !tbaa !9
  %28 = getelementptr inbounds nuw %struct.IDAMemRec, ptr %27, i32 0, i32 175
  %29 = load ptr, ptr %28, align 8, !tbaa !26
  %30 = icmp ne ptr %29, null
  br i1 %30, label %31, label %37

31:                                               ; preds = %26
  %32 = load ptr, ptr %6, align 8, !tbaa !9
  %33 = getelementptr inbounds nuw %struct.IDAMemRec, ptr %32, i32 0, i32 175
  %34 = load ptr, ptr %33, align 8, !tbaa !26
  %35 = load ptr, ptr %4, align 8, !tbaa !3
  %36 = call i32 %34(ptr noundef %35)
  store i32 %36, ptr %9, align 4, !tbaa !7
  br label %37

37:                                               ; preds = %31, %26
  %38 = load ptr, ptr %6, align 8, !tbaa !9
  %39 = getelementptr inbounds nuw %struct.IDAMemRec, ptr %38, i32 0, i32 171
  store ptr @IDASpgmrInit, ptr %39, align 8, !tbaa !27
  %40 = load ptr, ptr %6, align 8, !tbaa !9
  %41 = getelementptr inbounds nuw %struct.IDAMemRec, ptr %40, i32 0, i32 172
  store ptr @IDASpgmrSetup, ptr %41, align 8, !tbaa !28
  %42 = load ptr, ptr %6, align 8, !tbaa !9
  %43 = getelementptr inbounds nuw %struct.IDAMemRec, ptr %42, i32 0, i32 173
  store ptr @IDASpgmrSolve, ptr %43, align 8, !tbaa !29
  %44 = load ptr, ptr %6, align 8, !tbaa !9
  %45 = getelementptr inbounds nuw %struct.IDAMemRec, ptr %44, i32 0, i32 174
  store ptr @IDASpgmrPerf, ptr %45, align 8, !tbaa !30
  %46 = load ptr, ptr %6, align 8, !tbaa !9
  %47 = getelementptr inbounds nuw %struct.IDAMemRec, ptr %46, i32 0, i32 175
  store ptr @IDASpgmrFree, ptr %47, align 8, !tbaa !26
  store ptr null, ptr %7, align 8, !tbaa !31
  %48 = call noalias ptr @malloc(i64 noundef 264) #6
  store ptr %48, ptr %7, align 8, !tbaa !31
  %49 = load ptr, ptr %7, align 8, !tbaa !31
  %50 = icmp eq ptr %49, null
  br i1 %50, label %51, label %52

51:                                               ; preds = %37
  call void (ptr, i32, ptr, ptr, ptr, ...) @IDAProcessError(ptr noundef null, i32 noundef -4, ptr noundef @.str, ptr noundef @.str.1, ptr noundef @.str.4)
  store i32 -4, ptr %3, align 4
  store i32 1, ptr %11, align 4
  br label %180

52:                                               ; preds = %37
  %53 = load ptr, ptr %7, align 8, !tbaa !31
  %54 = getelementptr inbounds nuw %struct.IDASpilsMemRec, ptr %53, i32 0, i32 0
  store i32 1, ptr %54, align 8, !tbaa !33
  %55 = load i32, ptr %5, align 4, !tbaa !7
  %56 = icmp sle i32 %55, 0
  br i1 %56, label %57, label %58

57:                                               ; preds = %52
  br label %60

58:                                               ; preds = %52
  %59 = load i32, ptr %5, align 4, !tbaa !7
  br label %60

60:                                               ; preds = %58, %57
  %61 = phi i32 [ 5, %57 ], [ %59, %58 ]
  store i32 %61, ptr %10, align 4, !tbaa !7
  %62 = load i32, ptr %10, align 4, !tbaa !7
  %63 = load ptr, ptr %7, align 8, !tbaa !31
  %64 = getelementptr inbounds nuw %struct.IDASpilsMemRec, ptr %63, i32 0, i32 3
  store i32 %62, ptr %64, align 8, !tbaa !35
  %65 = load ptr, ptr %7, align 8, !tbaa !31
  %66 = getelementptr inbounds nuw %struct.IDASpilsMemRec, ptr %65, i32 0, i32 32
  store i32 1, ptr %66, align 8, !tbaa !36
  %67 = load ptr, ptr %7, align 8, !tbaa !31
  %68 = getelementptr inbounds nuw %struct.IDASpilsMemRec, ptr %67, i32 0, i32 33
  store ptr null, ptr %68, align 8, !tbaa !37
  %69 = load ptr, ptr %7, align 8, !tbaa !31
  %70 = getelementptr inbounds nuw %struct.IDASpilsMemRec, ptr %69, i32 0, i32 34
  store ptr null, ptr %70, align 8, !tbaa !38
  %71 = load ptr, ptr %7, align 8, !tbaa !31
  %72 = getelementptr inbounds nuw %struct.IDASpilsMemRec, ptr %71, i32 0, i32 28
  store ptr null, ptr %72, align 8, !tbaa !39
  %73 = load ptr, ptr %7, align 8, !tbaa !31
  %74 = getelementptr inbounds nuw %struct.IDASpilsMemRec, ptr %73, i32 0, i32 29
  store ptr null, ptr %74, align 8, !tbaa !40
  %75 = load ptr, ptr %7, align 8, !tbaa !31
  %76 = getelementptr inbounds nuw %struct.IDASpilsMemRec, ptr %75, i32 0, i32 30
  store ptr null, ptr %76, align 8, !tbaa !41
  %77 = load ptr, ptr %6, align 8, !tbaa !9
  %78 = getelementptr inbounds nuw %struct.IDAMemRec, ptr %77, i32 0, i32 2
  %79 = load ptr, ptr %78, align 8, !tbaa !42
  %80 = load ptr, ptr %7, align 8, !tbaa !31
  %81 = getelementptr inbounds nuw %struct.IDASpilsMemRec, ptr %80, i32 0, i32 31
  store ptr %79, ptr %81, align 8, !tbaa !43
  %82 = load ptr, ptr %7, align 8, !tbaa !31
  %83 = getelementptr inbounds nuw %struct.IDASpilsMemRec, ptr %82, i32 0, i32 1
  store i32 1, ptr %83, align 4, !tbaa !44
  %84 = load ptr, ptr %7, align 8, !tbaa !31
  %85 = getelementptr inbounds nuw %struct.IDASpilsMemRec, ptr %84, i32 0, i32 4
  store i32 5, ptr %85, align 4, !tbaa !45
  %86 = load ptr, ptr %7, align 8, !tbaa !31
  %87 = getelementptr inbounds nuw %struct.IDASpilsMemRec, ptr %86, i32 0, i32 5
  store double 5.000000e-02, ptr %87, align 8, !tbaa !46
  %88 = load ptr, ptr %7, align 8, !tbaa !31
  %89 = getelementptr inbounds nuw %struct.IDASpilsMemRec, ptr %88, i32 0, i32 6
  store double 1.000000e+00, ptr %89, align 8, !tbaa !47
  %90 = load ptr, ptr %7, align 8, !tbaa !31
  %91 = getelementptr inbounds nuw %struct.IDASpilsMemRec, ptr %90, i32 0, i32 27
  store i64 0, ptr %91, align 8, !tbaa !48
  %92 = load ptr, ptr %6, align 8, !tbaa !9
  %93 = getelementptr inbounds nuw %struct.IDAMemRec, ptr %92, i32 0, i32 179
  store i32 0, ptr %93, align 8, !tbaa !49
  %94 = load ptr, ptr %6, align 8, !tbaa !9
  %95 = getelementptr inbounds nuw %struct.IDAMemRec, ptr %94, i32 0, i32 58
  %96 = load ptr, ptr %95, align 8, !tbaa !11
  %97 = call ptr @N_VClone(ptr noundef %96)
  %98 = load ptr, ptr %7, align 8, !tbaa !31
  %99 = getelementptr inbounds nuw %struct.IDASpilsMemRec, ptr %98, i32 0, i32 20
  store ptr %97, ptr %99, align 8, !tbaa !50
  %100 = load ptr, ptr %7, align 8, !tbaa !31
  %101 = getelementptr inbounds nuw %struct.IDASpilsMemRec, ptr %100, i32 0, i32 20
  %102 = load ptr, ptr %101, align 8, !tbaa !50
  %103 = icmp eq ptr %102, null
  br i1 %103, label %104, label %106

104:                                              ; preds = %60
  call void (ptr, i32, ptr, ptr, ptr, ...) @IDAProcessError(ptr noundef null, i32 noundef -4, ptr noundef @.str, ptr noundef @.str.1, ptr noundef @.str.4)
  %105 = load ptr, ptr %7, align 8, !tbaa !31
  call void @free(ptr noundef %105) #5
  store ptr null, ptr %7, align 8, !tbaa !31
  store i32 -4, ptr %3, align 4
  store i32 1, ptr %11, align 4
  br label %180

106:                                              ; preds = %60
  %107 = load ptr, ptr %6, align 8, !tbaa !9
  %108 = getelementptr inbounds nuw %struct.IDAMemRec, ptr %107, i32 0, i32 58
  %109 = load ptr, ptr %108, align 8, !tbaa !11
  %110 = call ptr @N_VClone(ptr noundef %109)
  %111 = load ptr, ptr %7, align 8, !tbaa !31
  %112 = getelementptr inbounds nuw %struct.IDASpilsMemRec, ptr %111, i32 0, i32 21
  store ptr %110, ptr %112, align 8, !tbaa !51
  %113 = load ptr, ptr %7, align 8, !tbaa !31
  %114 = getelementptr inbounds nuw %struct.IDASpilsMemRec, ptr %113, i32 0, i32 21
  %115 = load ptr, ptr %114, align 8, !tbaa !51
  %116 = icmp eq ptr %115, null
  br i1 %116, label %117, label %122

117:                                              ; preds = %106
  call void (ptr, i32, ptr, ptr, ptr, ...) @IDAProcessError(ptr noundef null, i32 noundef -4, ptr noundef @.str, ptr noundef @.str.1, ptr noundef @.str.4)
  %118 = load ptr, ptr %7, align 8, !tbaa !31
  %119 = getelementptr inbounds nuw %struct.IDASpilsMemRec, ptr %118, i32 0, i32 20
  %120 = load ptr, ptr %119, align 8, !tbaa !50
  call void @N_VDestroy(ptr noundef %120)
  %121 = load ptr, ptr %7, align 8, !tbaa !31
  call void @free(ptr noundef %121) #5
  store ptr null, ptr %7, align 8, !tbaa !31
  store i32 -4, ptr %3, align 4
  store i32 1, ptr %11, align 4
  br label %180

122:                                              ; preds = %106
  %123 = load ptr, ptr %6, align 8, !tbaa !9
  %124 = getelementptr inbounds nuw %struct.IDAMemRec, ptr %123, i32 0, i32 58
  %125 = load ptr, ptr %124, align 8, !tbaa !11
  %126 = call ptr @N_VClone(ptr noundef %125)
  %127 = load ptr, ptr %7, align 8, !tbaa !31
  %128 = getelementptr inbounds nuw %struct.IDASpilsMemRec, ptr %127, i32 0, i32 22
  store ptr %126, ptr %128, align 8, !tbaa !52
  %129 = load ptr, ptr %7, align 8, !tbaa !31
  %130 = getelementptr inbounds nuw %struct.IDASpilsMemRec, ptr %129, i32 0, i32 22
  %131 = load ptr, ptr %130, align 8, !tbaa !52
  %132 = icmp eq ptr %131, null
  br i1 %132, label %133, label %141

133:                                              ; preds = %122
  call void (ptr, i32, ptr, ptr, ptr, ...) @IDAProcessError(ptr noundef null, i32 noundef -4, ptr noundef @.str, ptr noundef @.str.1, ptr noundef @.str.4)
  %134 = load ptr, ptr %7, align 8, !tbaa !31
  %135 = getelementptr inbounds nuw %struct.IDASpilsMemRec, ptr %134, i32 0, i32 20
  %136 = load ptr, ptr %135, align 8, !tbaa !50
  call void @N_VDestroy(ptr noundef %136)
  %137 = load ptr, ptr %7, align 8, !tbaa !31
  %138 = getelementptr inbounds nuw %struct.IDASpilsMemRec, ptr %137, i32 0, i32 21
  %139 = load ptr, ptr %138, align 8, !tbaa !51
  call void @N_VDestroy(ptr noundef %139)
  %140 = load ptr, ptr %7, align 8, !tbaa !31
  call void @free(ptr noundef %140) #5
  store ptr null, ptr %7, align 8, !tbaa !31
  store i32 -4, ptr %3, align 4
  store i32 1, ptr %11, align 4
  br label %180

141:                                              ; preds = %122
  %142 = load ptr, ptr %7, align 8, !tbaa !31
  %143 = getelementptr inbounds nuw %struct.IDASpilsMemRec, ptr %142, i32 0, i32 20
  %144 = load ptr, ptr %143, align 8, !tbaa !50
  call void @N_VConst(double noundef 1.000000e+00, ptr noundef %144)
  %145 = load ptr, ptr %7, align 8, !tbaa !31
  %146 = getelementptr inbounds nuw %struct.IDASpilsMemRec, ptr %145, i32 0, i32 20
  %147 = load ptr, ptr %146, align 8, !tbaa !50
  %148 = load ptr, ptr %7, align 8, !tbaa !31
  %149 = getelementptr inbounds nuw %struct.IDASpilsMemRec, ptr %148, i32 0, i32 20
  %150 = load ptr, ptr %149, align 8, !tbaa !50
  %151 = call double @N_VDotProd(ptr noundef %147, ptr noundef %150)
  %152 = call double @SUNRsqrt(double noundef %151)
  %153 = load ptr, ptr %7, align 8, !tbaa !31
  %154 = getelementptr inbounds nuw %struct.IDASpilsMemRec, ptr %153, i32 0, i32 2
  store double %152, ptr %154, align 8, !tbaa !53
  store ptr null, ptr %8, align 8, !tbaa !54
  %155 = load i32, ptr %10, align 4, !tbaa !7
  %156 = load ptr, ptr %6, align 8, !tbaa !9
  %157 = getelementptr inbounds nuw %struct.IDAMemRec, ptr %156, i32 0, i32 58
  %158 = load ptr, ptr %157, align 8, !tbaa !11
  %159 = call ptr @SpgmrMalloc(i32 noundef %155, ptr noundef %158)
  store ptr %159, ptr %8, align 8, !tbaa !54
  %160 = load ptr, ptr %8, align 8, !tbaa !54
  %161 = icmp eq ptr %160, null
  br i1 %161, label %162, label %173

162:                                              ; preds = %141
  call void (ptr, i32, ptr, ptr, ptr, ...) @IDAProcessError(ptr noundef null, i32 noundef -4, ptr noundef @.str, ptr noundef @.str.1, ptr noundef @.str.4)
  %163 = load ptr, ptr %7, align 8, !tbaa !31
  %164 = getelementptr inbounds nuw %struct.IDASpilsMemRec, ptr %163, i32 0, i32 20
  %165 = load ptr, ptr %164, align 8, !tbaa !50
  call void @N_VDestroy(ptr noundef %165)
  %166 = load ptr, ptr %7, align 8, !tbaa !31
  %167 = getelementptr inbounds nuw %struct.IDASpilsMemRec, ptr %166, i32 0, i32 21
  %168 = load ptr, ptr %167, align 8, !tbaa !51
  call void @N_VDestroy(ptr noundef %168)
  %169 = load ptr, ptr %7, align 8, !tbaa !31
  %170 = getelementptr inbounds nuw %struct.IDASpilsMemRec, ptr %169, i32 0, i32 22
  %171 = load ptr, ptr %170, align 8, !tbaa !52
  call void @N_VDestroy(ptr noundef %171)
  %172 = load ptr, ptr %7, align 8, !tbaa !31
  call void @free(ptr noundef %172) #5
  store ptr null, ptr %7, align 8, !tbaa !31
  store i32 -4, ptr %3, align 4
  store i32 1, ptr %11, align 4
  br label %180

173:                                              ; preds = %141
  %174 = load ptr, ptr %8, align 8, !tbaa !54
  %175 = load ptr, ptr %7, align 8, !tbaa !31
  %176 = getelementptr inbounds nuw %struct.IDASpilsMemRec, ptr %175, i32 0, i32 26
  store ptr %174, ptr %176, align 8, !tbaa !56
  %177 = load ptr, ptr %7, align 8, !tbaa !31
  %178 = load ptr, ptr %6, align 8, !tbaa !9
  %179 = getelementptr inbounds nuw %struct.IDAMemRec, ptr %178, i32 0, i32 176
  store ptr %177, ptr %179, align 8, !tbaa !57
  store i32 0, ptr %3, align 4
  store i32 1, ptr %11, align 4
  br label %180

180:                                              ; preds = %173, %162, %133, %117, %104, %51, %25, %14
  call void @llvm.lifetime.end.p0(i64 4, ptr %10) #5
  call void @llvm.lifetime.end.p0(i64 4, ptr %9) #5
  call void @llvm.lifetime.end.p0(i64 8, ptr %8) #5
  call void @llvm.lifetime.end.p0(i64 8, ptr %7) #5
  call void @llvm.lifetime.end.p0(i64 8, ptr %6) #5
  %181 = load i32, ptr %3, align 4
  ret i32 %181
}