; Function Attrs: nounwind uwtable
define range(i32 -4, 1) i32 @IDASpgmr(ptr noundef %0, i32 noundef %1) local_unnamed_addr #0 {
  %3 = icmp eq ptr %0, null
  br i1 %3, label %4, label %5

4:                                                ; preds = %2
  tail call void (ptr, i32, ptr, ptr, ptr, ...) @IDAProcessError(ptr noundef null, i32 noundef -1, ptr noundef nonnull @.str, ptr noundef nonnull @.str.1, ptr noundef nonnull @.str.2) #8
  br label %71

5:                                                ; preds = %2
  %6 = getelementptr inbounds nuw i8, ptr %0, i64 672
  %7 = load ptr, ptr %6, align 8, !tbaa !3
  %8 = getelementptr inbounds nuw i8, ptr %7, i64 8
  %9 = load ptr, ptr %8, align 8, !tbaa !17
  %10 = getelementptr inbounds nuw i8, ptr %9, i64 112
  %11 = load ptr, ptr %10, align 8, !tbaa !20
  %12 = icmp eq ptr %11, null
  br i1 %12, label %13, label %14

13:                                               ; preds = %5
  tail call void (ptr, i32, ptr, ptr, ptr, ...) @IDAProcessError(ptr noundef null, i32 noundef -3, ptr noundef nonnull @.str, ptr noundef nonnull @.str.1, ptr noundef nonnull @.str.3) #8
  br label %71

14:                                               ; preds = %5
  %15 = getelementptr inbounds nuw i8, ptr %0, i64 1624
  %16 = load ptr, ptr %15, align 8, !tbaa !22
  %.not = icmp eq ptr %16, null
  br i1 %.not, label %19, label %17

17:                                               ; preds = %14
  %18 = tail call i32 %16(ptr noundef nonnull %0) #8
  br label %19

19:                                               ; preds = %17, %14
  %20 = getelementptr inbounds nuw i8, ptr %0, i64 1592
  store ptr @IDASpgmrInit, ptr %20, align 8, !tbaa !23
  %21 = getelementptr inbounds nuw i8, ptr %0, i64 1600
  store ptr @IDASpgmrSetup, ptr %21, align 8, !tbaa !24
  %22 = getelementptr inbounds nuw i8, ptr %0, i64 1608
  store ptr @IDASpgmrSolve, ptr %22, align 8, !tbaa !25
  %23 = getelementptr inbounds nuw i8, ptr %0, i64 1616
  store ptr @IDASpgmrPerf, ptr %23, align 8, !tbaa !26
  store ptr @IDASpgmrFree, ptr %15, align 8, !tbaa !22
  %24 = tail call noalias dereferenceable_or_null(264) ptr @malloc(i64 noundef 264) #9
  %25 = icmp eq ptr %24, null
  br i1 %25, label %26, label %27

26:                                               ; preds = %19
  tail call void (ptr, i32, ptr, ptr, ptr, ...) @IDAProcessError(ptr noundef null, i32 noundef -4, ptr noundef nonnull @.str, ptr noundef nonnull @.str.1, ptr noundef nonnull @.str.4) #8
  br label %71

27:                                               ; preds = %19
  store i32 1, ptr %24, align 8, !tbaa !27
  %28 = icmp slt i32 %1, 1
  %29 = select i1 %28, i32 5, i32 %1
  %30 = getelementptr inbounds nuw i8, ptr %24, i64 16
  store i32 %29, ptr %30, align 8, !tbaa !29
  %31 = getelementptr inbounds nuw i8, ptr %24, i64 240
  store i32 1, ptr %31, align 8, !tbaa !30
  %32 = getelementptr inbounds nuw i8, ptr %24, i64 248
  %33 = getelementptr inbounds nuw i8, ptr %24, i64 208
  %34 = getelementptr inbounds nuw i8, ptr %0, i64 16
  tail call void @llvm.memset.p0.i64(ptr noundef nonnull align 8 dereferenceable(24) %33, i8 0, i64 24, i1 false)
  tail call void @llvm.memset.p0.i64(ptr noundef nonnull align 8 dereferenceable(16) %32, i8 0, i64 16, i1 false)
  %35 = load ptr, ptr %34, align 8, !tbaa !31
  %36 = getelementptr inbounds nuw i8, ptr %24, i64 232
  store ptr %35, ptr %36, align 8, !tbaa !32
  %37 = getelementptr inbounds nuw i8, ptr %24, i64 4
  store i32 1, ptr %37, align 4, !tbaa !33
  %38 = getelementptr inbounds nuw i8, ptr %24, i64 20
  store i32 5, ptr %38, align 4, !tbaa !34
  %39 = getelementptr inbounds nuw i8, ptr %24, i64 24
  store double 5.000000e-02, ptr %39, align 8, !tbaa !35
  %40 = getelementptr inbounds nuw i8, ptr %24, i64 32
  store double 1.000000e+00, ptr %40, align 8, !tbaa !36
  %41 = getelementptr inbounds nuw i8, ptr %24, i64 200
  store i64 0, ptr %41, align 8, !tbaa !37
  %42 = getelementptr inbounds nuw i8, ptr %0, i64 1648
  store i32 0, ptr %42, align 8, !tbaa !38
  %43 = load ptr, ptr %6, align 8, !tbaa !3
  %44 = tail call ptr @N_VClone(ptr noundef %43) #8
  %45 = getelementptr inbounds nuw i8, ptr %24, i64 144
  store ptr %44, ptr %45, align 8, !tbaa !39
  %46 = icmp eq ptr %44, null
  br i1 %46, label %47, label %48

47:                                               ; preds = %27
  tail call void (ptr, i32, ptr, ptr, ptr, ...) @IDAProcessError(ptr noundef null, i32 noundef -4, ptr noundef nonnull @.str, ptr noundef nonnull @.str.1, ptr noundef nonnull @.str.4) #8
  tail call void @free(ptr noundef nonnull %24) #8
  br label %71

48:                                               ; preds = %27
  %49 = load ptr, ptr %6, align 8, !tbaa !3
  %50 = tail call ptr @N_VClone(ptr noundef %49) #8
  %51 = getelementptr inbounds nuw i8, ptr %24, i64 152
  store ptr %50, ptr %51, align 8, !tbaa !40
  %52 = icmp eq ptr %50, null
  br i1 %52, label %53, label %54

53:                                               ; preds = %48
  tail call void (ptr, i32, ptr, ptr, ptr, ...) @IDAProcessError(ptr noundef null, i32 noundef -4, ptr noundef nonnull @.str, ptr noundef nonnull @.str.1, ptr noundef nonnull @.str.4) #8
  tail call void @N_VDestroy(ptr noundef nonnull %44) #8
  tail call void @free(ptr noundef nonnull %24) #8
  br label %71

54:                                               ; preds = %48
  %55 = load ptr, ptr %6, align 8, !tbaa !3
  %56 = tail call ptr @N_VClone(ptr noundef %55) #8
  %57 = getelementptr inbounds nuw i8, ptr %24, i64 160
  store ptr %56, ptr %57, align 8, !tbaa !41
  %58 = icmp eq ptr %56, null
  br i1 %58, label %59, label %60

59:                                               ; preds = %54
  tail call void (ptr, i32, ptr, ptr, ptr, ...) @IDAProcessError(ptr noundef null, i32 noundef -4, ptr noundef nonnull @.str, ptr noundef nonnull @.str.1, ptr noundef nonnull @.str.4) #8
  tail call void @N_VDestroy(ptr noundef nonnull %44) #8
  tail call void @N_VDestroy(ptr noundef nonnull %50) #8
  tail call void @free(ptr noundef nonnull %24) #8
  br label %71

60:                                               ; preds = %54
  tail call void @N_VConst(double noundef 1.000000e+00, ptr noundef nonnull %44) #8
  %61 = tail call double @N_VDotProd(ptr noundef nonnull %44, ptr noundef nonnull %44) #8
  %62 = tail call double @SUNRsqrt(double noundef %61) #8
  %63 = getelementptr inbounds nuw i8, ptr %24, i64 8
  store double %62, ptr %63, align 8, !tbaa !42
  %64 = load ptr, ptr %6, align 8, !tbaa !3
  %65 = tail call ptr @SpgmrMalloc(i32 noundef %29, ptr noundef %64) #8
  %66 = icmp eq ptr %65, null
  br i1 %66, label %67, label %68

67:                                               ; preds = %60
  tail call void (ptr, i32, ptr, ptr, ptr, ...) @IDAProcessError(ptr noundef null, i32 noundef -4, ptr noundef nonnull @.str, ptr noundef nonnull @.str.1, ptr noundef nonnull @.str.4) #8
  tail call void @N_VDestroy(ptr noundef nonnull %44) #8
  tail call void @N_VDestroy(ptr noundef nonnull %50) #8
  tail call void @N_VDestroy(ptr noundef nonnull %56) #8
  tail call void @free(ptr noundef nonnull %24) #8
  br label %71

68:                                               ; preds = %60
  %69 = getelementptr inbounds nuw i8, ptr %24, i64 192
  store ptr %65, ptr %69, align 8, !tbaa !43
  %70 = getelementptr inbounds nuw i8, ptr %0, i64 1632
  store ptr %24, ptr %70, align 8, !tbaa !44
  br label %71

71:                                               ; preds = %68, %67, %59, %53, %47, %26, %13, %4
  %.0 = phi i32 [ -1, %4 ], [ -3, %13 ], [ -4, %26 ], [ -4, %47 ], [ -4, %53 ], [ -4, %59 ], [ -4, %67 ], [ 0, %68 ]
  ret i32 %.0
}